; Function Attrs: nounwind uwtable
define dso_local noundef ptr @index_beginscan_parallel(ptr noundef %0, ptr noundef %1, i32 noundef %2, i32 noundef %3, ptr noundef %4) local_unnamed_addr #0 {
  %6 = getelementptr inbounds nuw i8, ptr %4, i64 32
  %7 = tail call ptr @RestoreSnapshot(ptr noundef nonnull %6) #7
  %8 = tail call ptr @RegisterSnapshot(ptr noundef %7) #7
  %9 = tail call fastcc ptr @index_beginscan_internal(ptr noundef %1, i32 noundef %2, i32 noundef %3, ptr noundef %7, ptr noundef %4, i1 noundef zeroext true)
  store ptr %0, ptr %9, align 8
  %10 = getelementptr inbounds nuw i8, ptr %9, i64 16
  store ptr %7, ptr %10, align 8
  %11 = getelementptr inbounds nuw i8, ptr %0, i64 320
  %12 = load ptr, ptr %11, align 8
  %13 = getelementptr inbounds nuw i8, ptr %12, i64 88
  %14 = load ptr, ptr %13, align 8
  %15 = tail call ptr %14(ptr noundef %0) #7
  %16 = getelementptr inbounds nuw i8, ptr %9, i64 104
  store ptr %15, ptr %16, align 8
  ret ptr %9
}